(lp0
(lp1
F1.6359000406373938
aF2.4135456462658147
aF2.0332562700876085
aF2.2405331737104657
aF1.9923407691449453
aa(lp2
F1.5840206233223537
aa(lp3
F1.4014921119051598
aa(lp4
F1.8674770603566533
aF2.1331860942500844
aa(lp5
F1.2012973721900466
aa(lp6
F1.0458234072767703
aa(lp7
F0.7631947193803039
aa(lp8
F1.0296033574742876
aF1.5222156747079125
aF1.2985362751292973
aa(lp9
F1.777036875268316
aF1.623207080416543
aa(lp10
F1.5881424173486653
aa(lp11
F1.1258667100904787
aa(lp12
F1.4020167480263503
aa(lp13
F1.3680836813643762
aa(lp14
F1.649085949203446
aa(lp15
F1.2431045398860952
aF2.02281605517129
aF1.9550998704451696
aa(lp16
F1.1161938886134726
aF1.1664203790226648
aa(lp17
F1.2134983832101003
aa(lp18
F0.7996953890526521
aF2.000741358900617
aF1.9280390053162744
aF2.150602507598955
aF1.8305784912325025
aF1.9841741196315013
aa(lp19
F1.1812588994785977
aa(lp20
F1.629055939089235
aa.