(lp0
(lp1
F0.898549143676196
aF1.8128591981993847
aF1.9725891894652883
aF2.2604716118058885
aF1.2276046952608586
aa(lp2
F1.1572073179049747
aa(lp3
F1.046181564763234
aa(lp4
F1.1153732310272808
aF1.4916081521800595
aa(lp5
F1.401149205882604
aa(lp6
F1.2144269868911501
aa(lp7
F0.4767088116398115
aa(lp8
F0.6550198513875515
aF1.2768678332520587
aF1.0440298173313272
aa(lp9
F1.646966870974215
aF1.5406106723885369
aa(lp10
F1.2018975617379564
aa(lp11
F0.9304394198739708
aa(lp12
F1.3639318128324796
aa(lp13
F1.455058018769647
aa(lp14
F1.3422729712884516
aa(lp15
F0.5368770805530517
aF1.8732508451121876
aF1.6701567191651288
aa(lp16
F1.4134669770712112
aF1.498585770836098
aa(lp17
F1.3921862197357369
aa(lp18
F1.4236790453138257
aF0.9373719795495714
aF2.0752528120248983
aF1.8740249672343234
aF1.8988220039887882
aF1.759441039966008
aa(lp19
F1.468999838879992
aa(lp20
F1.387914876640044
aa.